Certificate:
    Data:
        Version: 3 (0x2)
        Serial Number: 16582080088954381212 (0xe61f61fc3b34239c)
    Signature Algorithm: sha1WithRSAEncryption
        Issuer: C=US, ST=Maryland, L=Forest Hill, O=The Apache Software Foundation, OU=Apache Thrift, CN=localhost/emailAddress=dev@thrift.apache.org
        Validity
            Not Before: Apr  7 18:58:00 2014 GMT
            Not After : Jun 24 18:58:00 2022 GMT
        Subject: C=US, ST=Maryland, L=Forest Hill, O=The Apache Software Foundation, OU=Apache Thrift, CN=localhost/emailAddress=dev@thrift.apache.org
        Subject Public Key Info:
            Public Key Algorithm: rsaEncryption
                Public-Key: (2048 bit)
                Modulus:
                    00:aa:13:d4:c4:f7:01:17:a7:92:d1:b4:b4:15:0d:
                    21:90:19:5e:fc:fb:b6:6d:3f:f2:3f:65:a2:7a:43:
                    a6:46:95:fc:43:16:f6:63:14:5e:f7:b1:e3:61:02:
                    f9:4a:95:89:bf:8d:f9:48:1d:82:e7:34:e0:b2:48:
                    df:08:d9:7c:3a:2f:d3:1b:0b:e8:ef:c2:41:0a:7d:
                    0a:38:78:3a:31:66:73:99:8c:d1:79:27:5f:e5:66:
                    d0:5e:3a:8c:0c:92:18:73:04:c1:f5:45:db:37:e7:
                    5f:c7:8c:a3:60:e9:92:a0:d8:29:5d:77:48:fb:1d:
                    b0:ed:12:2c:4e:2e:02:db:3d:1a:41:71:a6:2b:2e:
                    b3:4c:6a:c7:f7:1d:a9:7e:c7:cf:db:f2:e7:b6:f3:
                    1f:77:1d:24:01:1a:66:66:30:85:30:02:29:c4:bb:
                    f7:cd:3f:89:4b:1a:5f:f4:91:96:fb:e9:39:f2:46:
                    96:12:3d:8a:23:b5:2e:82:9e:41:fe:40:b6:27:b1:
                    14:44:5c:96:30:0f:55:e4:bb:ad:8b:8a:99:17:c0:
                    29:11:4e:76:79:9d:4b:03:31:7e:85:3c:a8:23:40:
                    54:02:58:35:c6:fc:dd:3d:eb:e3:d1:51:00:02:86:
                    1a:d7:b0:9f:a0:17:73:6a:5a:d0:e6:b6:b8:55:40:
                    5e:27
                Exponent: 65537 (0x10001)
        X509v3 extensions:
            X509v3 Subject Key Identifier: 
                28:F2:FD:30:CD:03:F1:DC:41:1E:C4:93:C6:97:13:CA:D4:FA:60:2A
            X509v3 Authority Key Identifier: 
                keyid:28:F2:FD:30:CD:03:F1:DC:41:1E:C4:93:C6:97:13:CA:D4:FA:60:2A

            X509v3 Basic Constraints: 
                CA:TRUE
    Signature Algorithm: sha1WithRSAEncryption
         46:15:18:89:b2:57:17:d1:a2:64:c1:9a:73:4f:04:94:76:07:
         1f:29:ba:6f:34:46:c2:36:d5:68:85:f4:15:4c:8e:1a:fe:83:
         79:53:ec:aa:0d:92:60:de:f3:9a:3a:e8:80:66:ac:87:70:89:
         59:f2:ac:9e:b0:28:11:37:7d:78:4e:5e:3f:25:0f:be:09:6f:
         26:2a:3d:66:79:38:28:e5:81:71:71:96:26:4f:db:ec:23:70:
         be:37:39:fc:e0:32:0d:80:8f:66:c7:ac:a4:b4:8b:77:40:e2:
         99:44:3a:73:c8:f9:14:cf:1b:32:27:c2:78:db:b0:da:8a:60:
         eb:8d:34:7e:7d:3c:03:d4:38:74:f7:17:9e:32:74:9a:e7:37:
         95:d4:71:03:c8:94:ea:09:7b:ad:2d:eb:70:43:f2:32:7e:63:
         01:84:8c:7e:9e:f0:79:7f:ae:e9:cf:f9:be:0e:fe:95:d2:bd:
         c8:a7:81:c2:71:d9:c3:50:31:89:6d:fa:ad:a2:ab:00:01:34:
         10:58:ef:96:5a:eb:30:07:a9:8e:84:36:ef:3d:3c:61:46:96:
         6a:e8:09:20:5a:ab:f8:4b:eb:b7:33:61:8e:af:9a:7d:16:b0:
         60:6a:f0:30:e5:b2:8e:e7:80:b4:a1:02:a9:37:fe:5f:b5:ae:
         65:e9:6b:34
-----BEGIN CERTIFICATE-----
MIIENzCCAx+gAwIBAgIJAOYfYfw7NCOcMA0GCSqGSIb3DQEBBQUAMIGxMQswCQYD
VQQGEwJVUzERMA8GA1UECAwITWFyeWxhbmQxFDASBgNVBAcMC0ZvcmVzdCBIaWxs
MScwJQYDVQQKDB5UaGUgQXBhY2hlIFNvZnR3YXJlIEZvdW5kYXRpb24xFjAUBgNV
BAsMDUFwYWNoZSBUaHJpZnQxEjAQBgNVBAMMCWxvY2FsaG9zdDEkMCIGCSqGSIb3
DQEJARYVZGV2QHRocmlmdC5hcGFjaGUub3JnMB4XDTE0MDQwNzE4NTgwMFoXDTIy
MDYyNDE4NTgwMFowgbExCzAJBgNVBAYTAlVTMREwDwYDVQQIDAhNYXJ5bGFuZDEU
MBIGA1UEBwwLRm9yZXN0IEhpbGwxJzAlBgNVBAoMHlRoZSBBcGFjaGUgU29mdHdh
cmUgRm91bmRhdGlvbjEWMBQGA1UECwwNQXBhY2hlIFRocmlmdDESMBAGA1UEAwwJ
bG9jYWxob3N0MSQwIgYJKoZIhvcNAQkBFhVkZXZAdGhyaWZ0LmFwYWNoZS5vcmcw
ggEiMA0GCSqGSIb3DQEBAQUAA4IBDwAwggEKAoIBAQCqE9TE9wEXp5LRtLQVDSGQ
GV78+7ZtP/I/ZaJ6Q6ZGlfxDFvZjFF73seNhAvlKlYm/jflIHYLnNOCySN8I2Xw6
L9MbC+jvwkEKfQo4eDoxZnOZjNF5J1/lZtBeOowMkhhzBMH1Rds351/HjKNg6ZKg
2Cldd0j7HbDtEixOLgLbPRpBcaYrLrNMasf3Hal+x8/b8ue28x93HSQBGmZmMIUw
AinEu/fNP4lLGl/0kZb76TnyRpYSPYojtS6CnkH+QLYnsRREXJYwD1Xku62LipkX
wCkRTnZ5nUsDMX6FPKgjQFQCWDXG/N096+PRUQAChhrXsJ+gF3NqWtDmtrhVQF4n
AgMBAAGjUDBOMB0GA1UdDgQWBBQo8v0wzQPx3EEexJPGlxPK1PpgKjAfBgNVHSME
GDAWgBQo8v0wzQPx3EEexJPGlxPK1PpgKjAMBgNVHRMEBTADAQH/MA0GCSqGSIb3
DQEBBQUAA4IBAQBGFRiJslcX0aJkwZpzTwSUdgcfKbpvNEbCNtVohfQVTI4a/oN5
U+yqDZJg3vOaOuiAZqyHcIlZ8qyesCgRN314Tl4/JQ++CW8mKj1meTgo5YFxcZYm
T9vsI3C+Nzn84DINgI9mx6yktIt3QOKZRDpzyPkUzxsyJ8J427DaimDrjTR+fTwD
1Dh09xeeMnSa5zeV1HEDyJTqCXutLetwQ/IyfmMBhIx+nvB5f67pz/m+Dv6V0r3I
p4HCcdnDUDGJbfqtoqsAATQQWO+WWuswB6mOhDbvPTxhRpZq6AkgWqv4S+u3M2GO
r5p9FrBgavAw5bKO54C0oQKpN/5fta5l6Ws0
-----END CERTIFICATE-----
